target datalayout = "e-m:e-p270:32:32-p271:32:32-p272:64:64-i64:64-i128:128-f80:128-n8:16:32:64-S128"
target triple = "x86_64-pc-linux-gnu"

%struct._object = type { %union.anon, ptr }
%union.anon = type { i64 }
%union.sock_addr = type { %struct.sockaddr_storage }
%struct.sockaddr_storage = type { i16, [118 x i8], i64 }
%struct.PySocketSockObject = type { %struct._object, i32, i32, i32, i32, ptr, i64, ptr }
%union.__CONST_SOCKADDR_ARG = type { ptr }

@_Py_NoneStruct = external global %struct._object, align 8
@.str.531 = private unnamed_addr constant [5 x i8] c"bind\00", align 1
@.str.561 = private unnamed_addr constant [12 x i8] c"socket.bind\00", align 1
@.str.562 = private unnamed_addr constant [3 x i8] c"OO\00", align 1

; Function Attrs: inlinehint nounwind uwtable
define internal i32 @get_sock_fd(ptr noundef %0) #3 {
  %2 = alloca ptr, align 8
  store ptr %0, ptr %2, align 8, !tbaa !8
  %3 = load ptr, ptr %2, align 8, !tbaa !8
  %4 = getelementptr inbounds nuw %struct.PySocketSockObject, ptr %3, i32 0, i32 1
  %5 = load i32, ptr %4, align 8, !tbaa !113
  ret i32 %5
}

; Function Attrs: nounwind uwtable
define internal ptr @sock_bind(ptr noundef %0, ptr noundef %1) #0 {
  %3 = alloca ptr, align 8
  %4 = alloca ptr, align 8
  %5 = alloca ptr, align 8
  %6 = alloca ptr, align 8
  %7 = alloca %union.sock_addr, align 8
  %8 = alloca i32, align 4
  %9 = alloca i32, align 4
  %10 = alloca i32, align 4
  %11 = alloca ptr, align 8
  %12 = alloca %union.__CONST_SOCKADDR_ARG, align 8
  store ptr %0, ptr %4, align 8, !tbaa !3
  store ptr %1, ptr %5, align 8, !tbaa !3
  call void @llvm.lifetime.start.p0(i64 8, ptr %6) #10
  %13 = load ptr, ptr %4, align 8, !tbaa !3
  store ptr %13, ptr %6, align 8, !tbaa !8
  call void @llvm.lifetime.start.p0(i64 128, ptr %7) #10
  call void @llvm.lifetime.start.p0(i64 4, ptr %8) #10
  call void @llvm.lifetime.start.p0(i64 4, ptr %9) #10
  %14 = load ptr, ptr %6, align 8, !tbaa !8
  %15 = load ptr, ptr %5, align 8, !tbaa !3
  %16 = call i32 @getsockaddrarg(ptr noundef %14, ptr noundef %15, ptr noundef %7, ptr noundef %8, ptr noundef @.str.531)
  %17 = icmp ne i32 %16, 0
  br i1 %17, label %19, label %18

18:                                               ; preds = %2
  store ptr null, ptr %3, align 8
  store i32 1, ptr %10, align 4
  br label %42

19:                                               ; preds = %2
  %20 = load ptr, ptr %6, align 8, !tbaa !8
  %21 = load ptr, ptr %5, align 8, !tbaa !3
  %22 = call i32 (ptr, ptr, ...) @PySys_Audit(ptr noundef @.str.561, ptr noundef @.str.562, ptr noundef %20, ptr noundef %21)
  %23 = icmp slt i32 %22, 0
  br i1 %23, label %24, label %25

24:                                               ; preds = %19
  store ptr null, ptr %3, align 8
  store i32 1, ptr %10, align 4
  br label %42

25:                                               ; preds = %19
  call void @llvm.lifetime.start.p0(i64 8, ptr %11) #10
  %26 = call ptr @PyEval_SaveThread()
  store ptr %26, ptr %11, align 8, !tbaa !26
  %27 = load ptr, ptr %6, align 8, !tbaa !8
  %28 = call i32 @get_sock_fd(ptr noundef %27)
  store ptr %7, ptr %12, align 8, !tbaa !35
  %29 = load i32, ptr %8, align 4, !tbaa !15
  %30 = getelementptr inbounds nuw %union.__CONST_SOCKADDR_ARG, ptr %12, i32 0, i32 0
  %31 = load ptr, ptr %30, align 8
  %32 = call i32 @bind(i32 noundef %28, ptr %31, i32 noundef %29) #10
  store i32 %32, ptr %9, align 4, !tbaa !15
  %33 = load ptr, ptr %11, align 8, !tbaa !26
  call void @PyEval_RestoreThread(ptr noundef %33)
  call void @llvm.lifetime.end.p0(i64 8, ptr %11) #10
  %34 = load i32, ptr %9, align 4, !tbaa !15
  %35 = icmp slt i32 %34, 0
  br i1 %35, label %36, label %41

36:                                               ; preds = %25
  %37 = load ptr, ptr %6, align 8, !tbaa !8
  %38 = getelementptr inbounds nuw %struct.PySocketSockObject, ptr %37, i32 0, i32 5
  %39 = load ptr, ptr %38, align 8, !tbaa !110
  %40 = call ptr %39()
  store ptr %40, ptr %3, align 8
  store i32 1, ptr %10, align 4
  br label %42

41:                                               ; preds = %25
  store ptr @_Py_NoneStruct, ptr %3, align 8
  store i32 1, ptr %10, align 4
  br label %42

42:                                               ; preds = %41, %36, %24, %18
  call void @llvm.lifetime.end.p0(i64 4, ptr %9) #10
  call void @llvm.lifetime.end.p0(i64 4, ptr %8) #10
  call void @llvm.lifetime.end.p0(i64 128, ptr %7) #10
  call void @llvm.lifetime.end.p0(i64 8, ptr %6) #10
  %43 = load ptr, ptr %3, align 8
  ret ptr %43
}