; Function Attrs: nounwind uwtable
define internal ptr @sock_bind(ptr noundef %0, ptr noundef %1) #0 {
  %3 = alloca %union.sock_addr, align 8
  %4 = alloca i32, align 4
  call void @llvm.lifetime.start.p0(i64 128, ptr nonnull %3) #13
  call void @llvm.lifetime.start.p0(i64 4, ptr nonnull %4) #13
  %5 = call fastcc i32 @getsockaddrarg(ptr noundef %0, ptr noundef %1, ptr noundef %3, ptr noundef %4, ptr noundef nonnull @.str.531)
  %.not = icmp eq i32 %5, 0
  br i1 %.not, label %19, label %6

6:                                                ; preds = %2
  %7 = call i32 (ptr, ptr, ...) @PySys_Audit(ptr noundef nonnull @.str.561, ptr noundef nonnull @.str.562, ptr noundef %0, ptr noundef %1) #13
  %8 = icmp slt i32 %7, 0
  br i1 %8, label %19, label %9

9:                                                ; preds = %6
  %10 = call ptr @PyEval_SaveThread() #13
  %11 = getelementptr i8, ptr %0, i64 16
  %.val = load i32, ptr %11, align 8, !tbaa !83
  %12 = load i32, ptr %4, align 4, !tbaa !35
  %13 = call i32 @bind(i32 noundef %.val, ptr nonnull %3, i32 noundef %12) #13
  call void @PyEval_RestoreThread(ptr noundef %10) #13
  %14 = icmp slt i32 %13, 0
  br i1 %14, label %15, label %19

15:                                               ; preds = %9
  %16 = getelementptr inbounds nuw i8, ptr %0, i64 32
  %17 = load ptr, ptr %16, align 8, !tbaa !89
  %18 = call ptr %17() #13
  br label %19

19:                                               ; preds = %9, %6, %2, %15
  %.0 = phi ptr [ %18, %15 ], [ null, %2 ], [ null, %6 ], [ @_Py_NoneStruct, %9 ]
  call void @llvm.lifetime.end.p0(i64 4, ptr nonnull %4) #13
  call void @llvm.lifetime.end.p0(i64 128, ptr nonnull %3) #13
  ret ptr %.0
}